###############################################################################
#                                                                             #
# IAR ELF Linker V6.50.2.4510/W32 for ARM               11/Feb/2013  22:52:52 #
# Copyright 2007-2012 IAR Systems AB.                                         #
#                                                                             #
#    Output file  =  D:\qp\qpcpp\examples\arm-cortex\qk\iar\game-qk-ev-lm3s81 #
#                    1\rel\game-qk.out                                        #
#    Map file     =  D:\qp\qpcpp\examples\arm-cortex\qk\iar\game-qk-ev-lm3s81 #
#                    1\rel\game-qk.map                                        #
#    Command line =  D:\qp\qpcpp\examples\arm-cortex\qk\iar\game-qk-ev-lm3s81 #
#                    1\rel\bsp.o D:\qp\qpcpp\examples\arm-cortex\qk\iar\game- #
#                    qk-ev-lm3s811\rel\display96x16x1.o                       #
#                    D:\qp\qpcpp\examples\arm-cortex\qk\iar\game-qk-ev-lm3s81 #
#                    1\rel\main.o D:\qp\qpcpp\examples\arm-cortex\qk\iar\game #
#                    -qk-ev-lm3s811\rel\mine1.o D:\qp\qpcpp\examples\arm-cort #
#                    ex\qk\iar\game-qk-ev-lm3s811\rel\mine2.o                 #
#                    D:\qp\qpcpp\examples\arm-cortex\qk\iar\game-qk-ev-lm3s81 #
#                    1\rel\missile.o D:\qp\qpcpp\examples\arm-cortex\qk\iar\g #
#                    ame-qk-ev-lm3s811\rel\ship.o                             #
#                    D:\qp\qpcpp\examples\arm-cortex\qk\iar\game-qk-ev-lm3s81 #
#                    1\rel\startup_ewarm.o D:\qp\qpcpp\examples\arm-cortex\qk #
#                    \iar\game-qk-ev-lm3s811\rel\system_lm3s.o                #
#                    D:\qp\qpcpp\examples\arm-cortex\qk\iar\game-qk-ev-lm3s81 #
#                    1\rel\tunnel.o --redirect _Printf=_PrintfTiny            #
#                    --redirect _Scanf=_ScanfSmall -o                         #
#                    D:\qp\qpcpp\examples\arm-cortex\qk\iar\game-qk-ev-lm3s81 #
#                    1\rel\game-qk.out --map D:\qp\qpcpp\examples\arm-cortex\ #
#                    qk\iar\game-qk-ev-lm3s811\rel\game-qk.map --config       #
#                    D:\qp\qpcpp\examples\arm-cortex\qk\iar\game-qk-ev-lm3s81 #
#                    1\lm3s811.icf --semihosting                              #
#                    D:\qp\qpcpp\ports\arm-cortex\qk\iar\rel\libqp_cortex-m3. #
#                    a --entry __iar_program_start --inline --vfe             #
#                                                                             #
#                                                                             #
###############################################################################

*******************************************************************************
*** RUNTIME MODEL ATTRIBUTES
***

CppFlavor                     = *
__CPP_Language                = EC++
__Heap_Handler                = Basic
__SystemLibrary               = DLib
__dlib_dynamic_initialization = normal


*******************************************************************************
*** PLACEMENT SUMMARY
***

"A1":  place at start of [0x00000000-0x0000ffff] { ro section .intvec };
"P1":  place in [from 0x00000000 to 0x0000ffff] { ro };
"P2":  place in [from 0x20000000 to 0x20001fff] { rw, block HEAP };

  Section             Kind        Address    Size  Object
  -------             ----        -------    ----  ------
"A1":                                        0xf0
  .intvec             const    0x00000000    0xf0  startup_ewarm.o [1]
                             - 0x000000f0    0xf0

"P1":                                      0x2e38
  .text               ro code  0x000000f0   0x948  tunnel.o [1]
  .text               ro code  0x00000a38    0x50  cxxabi.o [4]
  .text               ro code  0x00000a88    0x3c  qte_ctor.o [5]
  .text               ro code  0x00000ac4   0x270  mine1.o [1]
  .text               ro code  0x00000d34   0x278  mine2.o [1]
  .text               ro code  0x00000fac    0x78  ABImemmove.o [6]
  .text               ro code  0x00001024    0x76  ABImemcpy.o [6]
  .text               ro code  0x0000109a    0x2e  copy_init3.o [6]
  .text               ro code  0x000010c8   0x1e4  qhsm_dis.o [5]
  .text               ro code  0x000012ac   0x2d8  bsp.o [1]
  .text               ro code  0x00001584    0xc4  qhsm_ini.o [5]
  .text               ro code  0x00001648    0x68  qa_sub.o [5]
  .text               ro code  0x000016b0     0x6  tunnel.o [1]
  .text               ro code  0x000016b6    0x14  tunnel.o [1]
  .text               ro code  0x000016ca    0x12  qte_darm.o [5]
  .text               ro code  0x000016dc    0xa4  qa_fifo.o [5]
  .text               ro code  0x00001780     0x6  tunnel.o [1]
  .text               ro code  0x00001786     0x6  tunnel.o [1]
  .text               ro code  0x0000178c     0x8  tunnel.o [1]
  .text               ro code  0x00001794    0x90  qk.o [5]
  .text               ro code  0x00001824    0x98  cppinit.o [3]
  .text               ro code  0x000018bc    0x64  qf_new.o [5]
  .text               ro code  0x00001920     0xa  mine2.o [1]
  .text               ro code  0x0000192a     0xa  mine2.o [1]
  .text               ro code  0x00001934    0x84  qf_tick.o [5]
  .text               ro code  0x000019b8    0xac  qf_pspub.o [5]
  .text               ro code  0x00001a64   0x268  system_lm3s.o [1]
  .text               ro code  0x00001ccc   0x6a4  display96x16x1.o [1]
  .text               ro code  0x00002370    0x66  ABImemset.o [6]
  .text               ro code  0x000023d6    0x22  zero_init3.o [6]
  .text               ro code  0x000023f8    0xa8  qk_sched.o [5]
  .text               ro code  0x000024a0    0x4c  qte_arm.o [5]
  CODE                ro code  0x000024ec    0x60  qk_port.o [5]
  .text               ro code  0x0000254c    0x12  qeq_init.o [5]
  .text               ro code  0x00002560    0x3c  qf_act.o [5]
  .text               ro code  0x0000259c    0x40  qmp_get.o [5]
  .text               ro code  0x000025dc    0x60  qf_gc.o [5]
  .text               ro code  0x0000263c    0x78  qa_get_.o [5]
  .text               ro code  0x000026b4    0x4c  qmp_put.o [5]
  .text               ro code  0x00002700   0x1f4  ship.o [1]
  .text               ro code  0x000028f4   0x160  missile.o [1]
  .rodata             const    0x00002a54    0xcc  qf_pwr2.o [5]
  .text               ro code  0x00002b20    0xac  qmp_init.o [5]
  .text               ro code  0x00002bcc    0x8e  main.o [1]
  .text               ro code  0x00002c5c    0x68  qf_pool.o [5]
  .text               ro code  0x00002cc4     0xc  qf_psini.o [5]
  .rodata             const    0x00002cd0    0x74  tunnel.o [1]
  .text               ro code  0x00002d44    0x3c  startup_ewarm.o [1]
  .text               ro code  0x00002d80    0x28  data_init.o [6]
  .iar.init_table     const    0x00002da8    0x28  - Linker created -
  .text               ro code  0x00002dd0    0x20  cmain_call_ctors.o [6]
  .text               ro code  0x00002df0    0x16  cmain.o [6]
  .text               ro code  0x00002e06     0x4  exit.o [3]
  .text               ro code  0x00002e0c     0xe  cexit.o [6]
  .text               ro code  0x00002e1c    0x14  exit.o [7]
  SHT$$PREINIT_ARRAY           0x00002e30     0x0  <Block>
  SHT$$INIT_ARRAY              0x00002e30    0x14  <Block>
    .init_array       const    0x00002e30     0x4  mine1.o [1]
    .init_array       const    0x00002e34     0x4  mine2.o [1]
    .init_array       const    0x00002e38     0x4  missile.o [1]
    .init_array       const    0x00002e3c     0x4  ship.o [1]
    .init_array       const    0x00002e40     0x4  tunnel.o [1]
  .rodata             const    0x00002e44    0x10  mine1.o [1]
  .rodata             const    0x00002e54    0x10  mine2.o [1]
  .rodata             const    0x00002e64    0x10  missile.o [1]
  .rodata             const    0x00002e74    0x10  ship.o [1]
  .rodata             const    0x00002e84    0x10  tunnel.o [1]
  .rodata             const    0x00002e94    0x10  tunnel.o [1]
  .rodata             const    0x00002ea4    0x10  qhsm_ini.o [5]
  .rodata             const    0x00002eb4    0x10  qep.o [5]
  .text               ro code  0x00002ec4     0xc  mine1.o [1]
  .text               ro code  0x00002ed0     0xc  mine2.o [1]
  .text               ro code  0x00002edc     0xc  missile.o [1]
  .text               ro code  0x00002ee8     0xc  tunnel.o [1]
  .text               ro code  0x00002ef4     0xc  ship.o [1]
  .text               ro code  0x00002f00     0xc  tunnel.o [1]
  .text               ro code  0x00002f0c     0xc  cstartup_M.o [6]
  .rodata             const    0x00002f18     0x4  missile.o [1]
  .rodata             const    0x00002f1c     0x4  ship.o [1]
  .text               ro code  0x00002f20     0x4  qhsm_top.o [5]
  .text               ro code  0x00002f24     0x0  cstart_call_dtors.o [6]
  .rodata             const    0x00002f24     0x0  zero_init3.o [6]
  .rodata             const    0x00002f24     0x0  copy_init3.o [6]
  Initializer bytes   ro data  0x00002f24     0x4  <for P2 s0>
                             - 0x00002f28  0x2e38

"P2", part 1 of 3:                            0x4
  P2 s0                        0x20000000     0x4  <Init block>
    .data             inited   0x20000000     0x1  qk.o [5]
                             - 0x20000004     0x4

"P2", part 2 of 3:                          0x578
  .bss                zero     0x20000004   0x180  tunnel.o [1]
  .bss                zero     0x20000184   0x124  main.o [1]
  .bss                zero     0x200002a8    0x84  tunnel.o [1]
  .bss                zero     0x2000032c    0x84  qf_act.o [5]
  .bss                zero     0x200003b0    0x7c  qf_pool.o [5]
  .bss                zero     0x2000042c    0x50  mine1.o [1]
  .bss                zero     0x2000047c    0x50  mine2.o [1]
  .bss                zero     0x200004cc    0x24  ship.o [1]
  .bss                zero     0x200004f0    0x20  missile.o [1]
  .bss                zero     0x20000510    0x14  mine1.o [1]
  .bss                zero     0x20000524    0x14  mine2.o [1]
  .bss                zero     0x20000538    0x10  bsp.o [1]
  .bss                zero     0x20000548     0xc  qk.o [5]
  .bss                zero     0x20000554     0x8  display96x16x1.o [1]
  .bss                zero     0x2000055c     0x8  qf_psini.o [5]
  .bss                zero     0x20000564     0x4  system_lm3s.o [1]
  .bss                zero     0x20000568     0x4  tunnel.o [1]
  .bss                zero     0x2000056c     0x4  qte_arm.o [5]
  .bss                zero     0x20000570     0x4  cppinit.o [3]
  .bss                zero     0x20000574     0x4  cppinit.o [3]
  .bss                zero     0x20000578     0x1  mine1.o [1]
  .bss                zero     0x20000579     0x1  mine2.o [1]
  .bss                zero     0x2000057a     0x1  qk.o [5]
  .bss                zero     0x2000057b     0x1  qk_mutex.o [5]
                             - 0x2000057c   0x578

"P2", part 3 of 3:                          0x414
  .noinit             uninit   0x2000057c   0x258  startup_ewarm.o [1]
  .iar.dynexit                 0x200007d4   0x1bc  <Block>
    .iar.dynexit      uninit   0x200007d4     0xc  cppinit.o [3]
    .iar.dynexit      uninit   0x200007e0   0x1b0  <Block tail>
                             - 0x20000990   0x414


*******************************************************************************
*** INIT TABLE
***

          Address     Size
          -------     ----
Zero (__iar_zero_init3)
    1 destination range, total size 0x578:
          0x20000004  0x578

Copy (__iar_copy_init3)
    1 source range, total size 0x4 (400% of destination):
          0x00002f24    0x4
    1 destination range, total size 0x1:
          0x20000000    0x1

Extra (__iar_cstart_call_ctors)



*******************************************************************************
*** MODULE SUMMARY
***

    Module               ro code  ro data  rw data
    ------               -------  -------  -------
D:\qp\qpcpp\examples\arm-cortex\qk\iar\game-qk-ev-lm3s811\rel: [1]
    bsp.o                    728                16
    display96x16x1.o       1 700                 8
    main.o                   142               292
    mine1.o                  636       20      101
    mine2.o                  664       20      101
    missile.o                364       24       32
    ship.o                   512       24       36
    startup_ewarm.o           60      240      600
    system_lm3s.o            616                 4
    tunnel.o               2 446      152      520
    ----------------------------------------------
    Total:                 7 868      480    1 710

command line: [2]
    ----------------------------------------------
    Total:

dl7M_tln.a: [3]
    cppinit.o                152                20
    exit.o                     4
    ----------------------------------------------
    Total:                   156                20

dlpp7M_tl_ne.a: [4]
    cxxabi.o                  80
    ----------------------------------------------
    Total:                    80

libqp_cortex-m3.a: [5]
    qa_fifo.o                164
    qa_get_.o                120
    qa_sub.o                 104
    qep.o                              16
    qeq_init.o                18
    qf_act.o                  60               132
    qf_gc.o                   96
    qf_new.o                 100
    qf_pool.o                104               124
    qf_psini.o                12                 8
    qf_pspub.o               172
    qf_pwr2.o                         204
    qf_tick.o                132
    qhsm_dis.o               484
    qhsm_ini.o               196       16
    qhsm_top.o                 4
    qk.o                     144        1       14
    qk_mutex.o                                   1
    qk_port.o                 96
    qk_sched.o               168
    qmp_get.o                 64
    qmp_init.o               172
    qmp_put.o                 76
    qte_arm.o                 76                 4
    qte_ctor.o                60
    qte_darm.o                18
    ----------------------------------------------
    Total:                 2 640      237      283

rt7M_tl.a: [6]
    ABImemcpy.o              118
    ABImemmove.o             120
    ABImemset.o              102
    cexit.o                   14
    cmain.o                   22
    cmain_call_ctors.o        32
    copy_init3.o              46
    cstart_call_dtors.o
    cstartup_M.o              12
    data_init.o               40
    zero_init3.o              34
    ----------------------------------------------
    Total:                   540

shb_l.a: [7]
    exit.o                    20
    ----------------------------------------------
    Total:                    20

    Gaps                       8
    Linker created                     43      432
--------------------------------------------------
    Grand Total:          11 312      760    2 445


*******************************************************************************
*** ENTRY LIST
***

Entry                      Address   Size  Type      Object
-----                      -------   ----  ----      ------
.iar.dynexit$$Base      0x200007d4          --   Gb  - Linker created -
.iar.dynexit$$Limit     0x20000990          --   Gb  - Linker created -
?main                   0x00002df1         Code  Gb  cmain.o [6]
ADCSeq3_IRQHandler      0x00001309   0xb0  Code  Gb  bsp.o [1]
Display96x16x1Clear     0x00001d4f   0x5a  Code  Gb  display96x16x1.o [1]
Display96x16x1DisplayOff
                        0x0000208f   0x22  Code  Gb  display96x16x1.o [1]
Display96x16x1DisplayOn
                        0x00001fe3   0x66  Code  Gb  display96x16x1.o [1]
Display96x16x1ImageDraw
                        0x00001e4d   0x66  Code  Gb  display96x16x1.o [1]
Display96x16x1Init      0x00001ebb  0x128  Code  Gb  display96x16x1.o [1]
Display96x16x1StringDraw
                        0x00001da9   0xa4  Code  Gb  display96x16x1.o [1]
Display96x16x1WriteArray
                        0x00001cf5   0x26  Code  Lc  display96x16x1.o [1]
Display96x16x1WriteByte
                        0x00001ce3   0x12  Code  Lc  display96x16x1.o [1]
Display96x16x1WriteFinal
                        0x00001d21   0x22  Code  Lc  display96x16x1.o [1]
Display96x16x1WriteFirst
                        0x00001cd5    0xe  Code  Lc  display96x16x1.o [1]
DtorRecArray            0x200007d4    0xc  Data  Lc  cppinit.o [3]
GAME::AO_Missile        0x00002f18    0x4  Data  Gb  missile.o [1]
GAME::AO_Ship           0x00002f1c    0x4  Data  Gb  ship.o [1]
GAME::AO_Tunnel         0x00002cd0    0x4  Data  Gb  tunnel.o [1]
GAME::BSP_displayOff()  0x0000149b    0x4  Code  Gb  bsp.o [1]
GAME::BSP_displayOn()   0x00001497    0x4  Code  Gb  bsp.o [1]
GAME::BSP_drawBitmap(unsigned char const *)
                        0x00001479   0x12  Code  Gb  bsp.o [1]
GAME::BSP_drawNString(unsigned char, unsigned char, char const *)
                        0x0000148b    0xc  Code  Gb  bsp.o [1]
GAME::BSP_init()        0x000013b9   0xc0  Code  Gb  bsp.o [1]
GAME::Mine1::Mine1()    0x00000b11   0x14  Code  Gb  mine1.o [1]
GAME::Mine1::exploding(GAME::Mine1*, QP::QEvt const *)
                        0x00000b87   0x54  Code  Gb  mine1.o [1]
GAME::Mine1::initial(GAME::Mine1*, QP::QEvt const *)
                        0x00000b25   0x12  Code  Gb  mine1.o [1]
GAME::Mine1::planted(GAME::Mine1*, QP::QEvt const *)
                        0x00000bf1   0xa4  Code  Gb  mine1.o [1]
GAME::Mine1::unused(GAME::Mine1*, QP::QEvt const *)
                        0x00000b39   0x1c  Code  Gb  mine1.o [1]
GAME::Mine1::used(GAME::Mine1*, QP::QEvt const *)
                        0x00000b55   0x32  Code  Gb  mine1.o [1]
GAME::Mine1::~Mine1()   0x00002ec5    0xc  Code  Gb  mine1.o [1]
GAME::Mine1_getInst(unsigned char)
                        0x00000af5   0x1a  Code  Gb  mine1.o [1]
GAME::Mine2::Mine2()    0x00000d81   0x14  Code  Gb  mine2.o [1]
GAME::Mine2::exploding(GAME::Mine2*, QP::QEvt const *)
                        0x00000df7   0x54  Code  Gb  mine2.o [1]
GAME::Mine2::initial(GAME::Mine2*, QP::QEvt const *)
                        0x00000d95   0x12  Code  Gb  mine2.o [1]
GAME::Mine2::planted(GAME::Mine2*, QP::QEvt const *)
                        0x00000e61   0xb8  Code  Gb  mine2.o [1]
GAME::Mine2::unused(GAME::Mine2*, QP::QEvt const *)
                        0x00000da9   0x1c  Code  Gb  mine2.o [1]
GAME::Mine2::used(GAME::Mine2*, QP::QEvt const *)
                        0x00000dc5   0x32  Code  Gb  mine2.o [1]
GAME::Mine2::~Mine2()   0x00002ed1    0xc  Code  Gb  mine2.o [1]
GAME::Mine2_getInst(unsigned char)
                        0x00000d65   0x1a  Code  Gb  mine2.o [1]
GAME::MineEvt::MineEvt(unsigned short, unsigned char)
                        0x00001921    0xa  Code  Gb  mine2.o [1]
GAME::Missile::Missile()
                        0x00002909   0x18  Code  Gb  missile.o [1]
GAME::Missile::armed(GAME::Missile*, QP::QEvt const *)
                        0x0000293d   0x1c  Code  Gb  missile.o [1]
GAME::Missile::exploding(GAME::Missile*, QP::QEvt const *)
                        0x000029b9   0x60  Code  Gb  missile.o [1]
GAME::Missile::flying(GAME::Missile*, QP::QEvt const *)
                        0x00002959   0x60  Code  Gb  missile.o [1]
GAME::Missile::initial(GAME::Missile*, QP::QEvt const *)
                        0x00002925   0x18  Code  Gb  missile.o [1]
GAME::Missile::~Missile()
                        0x00002edd    0xc  Code  Gb  missile.o [1]
GAME::ScoreEvt::ScoreEvt(unsigned short, unsigned short)
                        0x0000192b    0xa  Code  Gb  mine2.o [1]
GAME::Ship::Ship()      0x00002715   0x20  Code  Gb  ship.o [1]
GAME::Ship::active(GAME::Ship*, QP::QEvt const *)
                        0x00002759   0x26  Code  Gb  ship.o [1]
GAME::Ship::exploding(GAME::Ship*, QP::QEvt const *)
                        0x0000284d   0x64  Code  Gb  ship.o [1]
GAME::Ship::flying(GAME::Ship*, QP::QEvt const *)
                        0x00002791   0xba  Code  Gb  ship.o [1]
GAME::Ship::initial(GAME::Ship*, QP::QEvt const *)
                        0x00002739   0x20  Code  Gb  ship.o [1]
GAME::Ship::parked(GAME::Ship*, QP::QEvt const *)
                        0x00002781   0x10  Code  Gb  ship.o [1]
GAME::Ship::~Ship()     0x00002ef5    0xc  Code  Gb  ship.o [1]
GAME::Tunnel::Tunnel()  0x0000010b   0x64  Code  Gb  tunnel.o [1]
GAME::Tunnel::active(GAME::Tunnel*, QP::QEvt const *)
                        0x00000425   0x4c  Code  Gb  tunnel.o [1]
GAME::Tunnel::addImageAt(unsigned char, unsigned char, signed char)
                        0x000002c3   0x72  Code  Gb  tunnel.o [1]
GAME::Tunnel::advance()
                        0x0000016f   0xc4  Code  Gb  tunnel.o [1]
GAME::Tunnel::demo(GAME::Tunnel*, QP::QEvt const *)
                        0x00000471   0xb0  Code  Gb  tunnel.o [1]
GAME::Tunnel::dispatchToAllMines(QP::QEvt const *)
                        0x00000335   0x1e  Code  Gb  tunnel.o [1]
GAME::Tunnel::final(GAME::Tunnel*, QP::QEvt const *)
                        0x00000831   0x2c  Code  Gb  tunnel.o [1]
GAME::Tunnel::game_over(GAME::Tunnel*, QP::QEvt const *)
                        0x000006b9   0x6c  Code  Gb  tunnel.o [1]
GAME::Tunnel::initial(GAME::Tunnel*, QP::QEvt const *)
                        0x000003d5   0x48  Code  Gb  tunnel.o [1]
GAME::Tunnel::isWallHit(unsigned char, unsigned char, unsigned char)
                        0x00000353   0x76  Code  Gb  tunnel.o [1]
GAME::Tunnel::plantMine()
                        0x00000233   0x90  Code  Gb  tunnel.o [1]
GAME::Tunnel::playing(GAME::Tunnel*, QP::QEvt const *)
                        0x00000521  0x198  Code  Gb  tunnel.o [1]
GAME::Tunnel::screen_saver(GAME::Tunnel*, QP::QEvt const *)
                        0x0000073d   0x18  Code  Gb  tunnel.o [1]
GAME::Tunnel::screen_saver_hide(GAME::Tunnel*, QP::QEvt const *)
                        0x0000075d   0x46  Code  Gb  tunnel.o [1]
GAME::Tunnel::screen_saver_show(GAME::Tunnel*, QP::QEvt const *)
                        0x000007b5   0x72  Code  Gb  tunnel.o [1]
GAME::Tunnel::~Tunnel()
                        0x00002f01    0xc  Code  Gb  tunnel.o [1]
GAME::do_bitmaps_overlap(unsigned char, unsigned char, unsigned char, unsigned char, unsigned char, unsigned char)
                        0x000008b1   0xc4  Code  Gb  tunnel.o [1]
GAME::explosion0_bits   0x00002d24    0x8  Data  Lc  tunnel.o [1]
GAME::explosion1_bits   0x00002d2c    0x8  Data  Lc  tunnel.o [1]
GAME::explosion2_bits   0x00002d34    0x8  Data  Lc  tunnel.o [1]
GAME::explosion3_bits   0x00002d3c    0x8  Data  Lc  tunnel.o [1]
GAME::l_bitmap          0x000009dc   0x50  Data  Lc  tunnel.o [1]
GAME::l_frame           0x200000c4   0xc0  Data  Lc  tunnel.o [1]
GAME::l_medPoolSto      0x200001e8   0xa0  Data  Lc  main.o [1]
GAME::l_mine1           0x2000042c   0x50  Data  Lc  mine1.o [1]
GAME::l_mine2           0x2000047c   0x50  Data  Lc  mine2.o [1]
GAME::l_missile         0x200004f0   0x20  Data  Lc  missile.o [1]
GAME::l_missileQueueSto
                        0x20000184    0x8  Data  Lc  main.o [1]
GAME::l_rnd             0x20000568    0x4  Data  Lc  tunnel.o [1]
GAME::l_ship            0x200004cc   0x24  Data  Lc  ship.o [1]
GAME::l_shipQueueSto    0x2000018c    0xc  Data  Lc  main.o [1]
GAME::l_smlPoolSto      0x200001c0   0x28  Data  Lc  main.o [1]
GAME::l_subscrSto       0x20000288   0x20  Data  Lc  main.o [1]
GAME::l_this_file       0x00000cf0   0x44  Data  Lc  mine1.o [1]
GAME::l_this_file       0x00000f68   0x44  Data  Lc  mine2.o [1]
GAME::l_this_file       0x00000994   0x48  Data  Lc  tunnel.o [1]
GAME::l_tunnel          0x200002a8   0x84  Data  Lc  tunnel.o [1]
GAME::l_tunnelQueueSto  0x20000198   0x28  Data  Lc  main.o [1]
GAME::l_walls           0x20000004   0xc0  Data  Lc  tunnel.o [1]
GAME::mine1_bits        0x00002d18    0x4  Data  Lc  tunnel.o [1]
GAME::mine2_bits        0x00002d1c    0x4  Data  Lc  tunnel.o [1]
GAME::mine2_missile_bits
                        0x00002d20    0x4  Data  Lc  tunnel.o [1]
GAME::missile_bits      0x00002d14    0x4  Data  Lc  tunnel.o [1]
GAME::press_button_bits
                        0x00002cd4   0x38  Data  Lc  tunnel.o [1]
GAME::random()          0x0000085d    0xe  Code  Lc  tunnel.o [1]
GAME::ship_bits         0x00002d0c    0x8  Data  Lc  tunnel.o [1]
HardFault_Handler       0x00002d53    0xe  Code  Gb  startup_ewarm.o [1]
NMI_Handler             0x00002d45    0xe  Code  Gb  startup_ewarm.o [1]
NVIC_EnableIRQ(IRQn)    0x000012ad   0x14  Code  Lc  bsp.o [1]
NVIC_SetPriority(IRQn, unsigned int)
                        0x000012c1   0x1a  Code  Lc  bsp.o [1]
PendSV_Handler          0x0000250d         Code  Gb  qk_port.o [5]
QK_ceilingPrio_         0x2000057b    0x1  Data  Gb  qk_mutex.o [5]
QK_currPrio_            0x20000000    0x1  Data  Gb  qk.o [5]
QK_init                 0x000024ed         Code  Gb  qk_port.o [5]
QK_intNest_             0x2000057a    0x1  Data  Gb  qk.o [5]
QK_readySet_            0x20000548    0xc  Data  Gb  qk.o [5]
QK_schedPrio_           0x000023f9   0x38  Code  Gb  qk_sched.o [5]
QK_sched_               0x00002431   0x60  Code  Gb  qk_sched.o [5]
QP::QActive::get_()     0x0000263d   0x62  Code  Gb  qa_get_.o [5]
QP::QActive::postFIFO(QP::QEvt const *)
                        0x000016dd   0x8a  Code  Gb  qa_fifo.o [5]
QP::QActive::start(unsigned char, QP::QEvt const **, unsigned int, void *, unsigned int, QP::QEvt const *)
                        0x000017c9   0x58  Code  Gb  qk.o [5]
QP::QActive::subscribe(int) const
                        0x00001649   0x4c  Code  Gb  qa_sub.o [5]
QP::QActive::~QActive()
                        0x00002ee9    0xc  Code  Gb  tunnel.o [1]
QP::QEP_reservedEvt_    0x00002eb4   0x10  Data  Gb  qep.o [5]
QP::QEQueue::init(QP::QEvt const **, unsigned char)
                        0x0000254d   0x12  Code  Gb  qeq_init.o [5]
QP::QF::active_         0x2000032c   0x84  Data  Gb  qf_act.o [5]
QP::QF::add_(QP::QActive *)
                        0x00002561   0x2e  Code  Gb  qf_act.o [5]
QP::QF::gc(QP::QEvt const *)
                        0x000025dd   0x50  Code  Gb  qf_gc.o [5]
QP::QF::init()          0x00001795    0x4  Code  Gb  qk.o [5]
QP::QF::new_(unsigned short, int)
                        0x000018bd   0x54  Code  Gb  qf_new.o [5]
QP::QF::onCleanup()     0x0000150d    0x2  Code  Gb  bsp.o [1]
QP::QF::onStartup()     0x0000149f   0x6e  Code  Gb  bsp.o [1]
QP::QF::poolInit(void *, unsigned int, unsigned int)
                        0x00002c5d   0x5a  Code  Gb  qf_pool.o [5]
QP::QF::psInit(QP::QSubscrList *, unsigned int)
                        0x00002cc5    0xc  Code  Gb  qf_psini.o [5]
QP::QF::publish(QP::QEvt const *)
                        0x000019b9   0x90  Code  Gb  qf_pspub.o [5]
QP::QF::run()           0x000017a1   0x22  Code  Gb  qk.o [5]
QP::QF::stop()          0x00001799    0x4  Code  Gb  qk.o [5]
QP::QF::tick()          0x00001935   0x76  Code  Gb  qf_tick.o [5]
QP::QF_div8Lkup         0x00002adc   0x44  Data  Gb  qf_pwr2.o [5]
QP::QF_invPwr2Lkup      0x00002a98   0x44  Data  Gb  qf_pwr2.o [5]
QP::QF_maxPool_         0x200003b0    0x1  Data  Gb  qf_pool.o [5]
QP::QF_maxSignal_       0x20000560    0x4  Data  Gb  qf_psini.o [5]
QP::QF_pool_            0x200003b4   0x78  Data  Gb  qf_pool.o [5]
QP::QF_pwr2Lkup         0x00002a54   0x44  Data  Gb  qf_pwr2.o [5]
QP::QF_subscrList_      0x2000055c    0x4  Data  Gb  qf_psini.o [5]
QP::QF_timeEvtListHead_
                        0x2000056c    0x4  Data  Gb  qte_arm.o [5]
QP::QHsm::dispatch(QP::QEvt const *)
                        0x000010c9  0x1d2  Code  Gb  qhsm_dis.o [5]
QP::QHsm::init(QP::QEvt const *)
                        0x00001585   0xac  Code  Gb  qhsm_ini.o [5]
QP::QHsm::super(unsigned char (*)(void *, QP::QEvt const *))
                        0x00001781    0x6  Code  Gb  tunnel.o [1]
QP::QHsm::top(void *, QP::QEvt const *)
                        0x00002f21    0x4  Code  Gb  qhsm_top.o [5]
QP::QHsm::tran(unsigned char (*)(void *, QP::QEvt const *))
                        0x000016b1    0x6  Code  Gb  tunnel.o [1]
QP::QK::onIdle()        0x0000150f   0x12  Code  Gb  bsp.o [1]
QP::QMPool::get()       0x0000259d   0x38  Code  Gb  qmp_get.o [5]
QP::QMPool::init(void *, unsigned int, unsigned short)
                        0x00002b21   0x9e  Code  Gb  qmp_init.o [5]
QP::QMPool::put(void *)
                        0x000026b5   0x44  Code  Gb  qmp_put.o [5]
QP::QTimeEvt::QTimeEvt(int)
                        0x00000a89   0x2e  Code  Gb  qte_ctor.o [5]
QP::QTimeEvt::arm_(QP::QActive *, unsigned short)
                        0x000024a1   0x3e  Code  Gb  qte_arm.o [5]
QP::QTimeEvt::disarm()  0x000016cb   0x12  Code  Gb  qte_darm.o [5]
QP::QTimeEvt::postEvery(QP::QActive *, unsigned short)
                        0x00001787    0x6  Code  Gb  tunnel.o [1]
QP::QTimeEvt::postIn(QP::QActive *, unsigned short)
                        0x0000178d    0x8  Code  Gb  tunnel.o [1]
QP::l_this_file         0x00001820    0x4  Data  Lc  qk.o [5]
QP::l_this_file         0x00001918    0x8  Data  Lc  qf_new.o [5]
QP::l_this_file         0x000019b0    0x8  Data  Lc  qf_tick.o [5]
QP::l_this_file         0x00001a58    0xc  Data  Lc  qf_pspub.o [5]
QP::l_this_file         0x00001778    0x8  Data  Lc  qa_fifo.o [5]
QP::l_this_file         0x00002cbc    0x8  Data  Lc  qf_pool.o [5]
QP::l_this_file         0x0000163c    0xc  Data  Lc  qhsm_ini.o [5]
QP::l_this_file         0x000016a8    0x8  Data  Lc  qa_sub.o [5]
QP::l_this_file         0x000012a0    0xc  Data  Lc  qhsm_dis.o [5]
QP::l_this_file         0x000024e4    0x8  Data  Lc  qte_arm.o [5]
QP::l_this_file         0x00000ab8    0xc  Data  Lc  qte_ctor.o [5]
QP::l_this_file         0x00002594    0x8  Data  Lc  qf_act.o [5]
QP::l_this_file         0x000025d4    0x8  Data  Lc  qmp_get.o [5]
QP::l_this_file         0x00002634    0x8  Data  Lc  qf_gc.o [5]
QP::l_this_file         0x00002bc0    0xc  Data  Lc  qmp_init.o [5]
QP::l_this_file         0x000026ac    0x8  Data  Lc  qa_get_.o [5]
QP::l_this_file         0x000026f8    0x8  Data  Lc  qmp_put.o [5]
Q_onAssert              0x00001579    0x4  Code  Gb  bsp.o [1]
Region$$Table$$Base     0x00002da8          --   Gb  - Linker created -
Region$$Table$$Limit    0x00002dd0          --   Gb  - Linker created -
SHT$$INIT_ARRAY$$Base   0x00002e30          --   Gb  - Linker created -
SHT$$INIT_ARRAY$$Limit  0x00002e44          --   Gb  - Linker created -
SHT$$PREINIT_ARRAY$$Base
                        0x00002e30          --   Gb  - Linker created -
SHT$$PREINIT_ARRAY$$Limit
                        0x00002e30          --   Gb  - Linker created -
SVC_Handler             0x00002539         Code  Gb  qk_port.o [5]
SysCtlDelay             0x00001ccd    0x8  Code  Lc  display96x16x1.o [1]
SysTick_Handler         0x000012db   0x2e  Code  Gb  bsp.o [1]
SystemFrequency         0x20000564    0x4  Data  Gb  system_lm3s.o [1]
SystemInit              0x00001a65  0x1c0  Code  Gb  system_lm3s.o [1]
Virtual function table for GAME::Mine1
                        0x00002e44   0x10  Data  Gb  mine1.o [1]
Virtual function table for GAME::Mine2
                        0x00002e54   0x10  Data  Gb  mine2.o [1]
Virtual function table for GAME::Missile
                        0x00002e64   0x10  Data  Gb  missile.o [1]
Virtual function table for GAME::Ship
                        0x00002e74   0x10  Data  Gb  ship.o [1]
Virtual function table for GAME::Tunnel
                        0x00002e94   0x10  Data  Gb  tunnel.o [1]
Virtual function table for QP::QActive
                        0x00002e84   0x10  Data  Gb  tunnel.o [1]
Virtual function table for QP::QHsm
                        0x00002ea4   0x10  Data  Gb  qhsm_ini.o [5]
__aeabi_atexit          0x00000a79    0xa  Code  Gb  cxxabi.o [4]
__aeabi_memcpy          0x00001025         Code  Gb  ABImemcpy.o [6]
__aeabi_memcpy4         0x00001045         Code  Gb  ABImemcpy.o [6]
__aeabi_memcpy8         0x00001045         Code  Gb  ABImemcpy.o [6]
__aeabi_memmove         0x00000fad         Code  Gb  ABImemmove.o [6]
__aeabi_memmove4        0x00000fad         Code  Gb  ABImemmove.o [6]
__aeabi_memmove8        0x00000fad         Code  Gb  ABImemmove.o [6]
__aeabi_memset          0x00002371         Code  Gb  ABImemset.o [6]
__aeabi_vec_ctor_nocookie_nodtor
                        0x00000a39   0x22  Code  Gb  cxxabi.o [4]
__aeabi_vec_dtor        0x00000a5b   0x1e  Code  Gb  cxxabi.o [4]
__call_ctors            0x00001825   0x18  Code  Gb  cppinit.o [3]
__call_dtors            0x00001877    0x2  Code  Gb  cppinit.o [3]
__cexit_call_dtors      0x00002e0f         Code  Gb  cexit.o [6]
__cmain                 0x00002df1         Code  Gb  cmain.o [6]
__cstart_call_dtors     0x00002f24         Data  Gb  cstart_call_dtors.o [6]
__cxa_atexit            0x0000183d   0x3a  Code  Gb  cppinit.o [3]
__cxa_finalize          0x00001879   0x36  Code  Gb  cppinit.o [3]
__dso_handle            0x20000574    0x4  Data  Gb  cppinit.o [3]
__exit                  0x00002e1d   0x14  Code  Gb  exit.o [7]
__iar_Memset            0x00002371         Code  Gb  ABImemset.o [6]
__iar_Memset_word       0x00002379         Code  Gb  ABImemset.o [6]
__iar_copy_init3        0x0000109b   0x2e  Code  Gb  copy_init3.o [6]
__iar_cstart_call_ctors
                        0x00002dd1   0x20  Code  Gb  cmain_call_ctors.o [6]
__iar_data_init3        0x00002d81   0x28  Code  Gb  data_init.o [6]
__iar_program_start     0x00002f0d         Code  Gb  cstartup_M.o [6]
__iar_zero_init3        0x000023d7   0x22  Code  Gb  zero_init3.o [6]
__sti__routine          0x00000ac5   0x20  Code  Lc  mine1.o [1]
__sti__routine          0x00000d35   0x20  Code  Lc  mine2.o [1]
__sti__routine          0x000028f5   0x14  Code  Lc  missile.o [1]
__sti__routine          0x00002701   0x14  Code  Lc  ship.o [1]
__sti__routine          0x000000f1   0x1a  Code  Lc  tunnel.o [1]
__vector_table          0x00000000   0xf0  Data  Gb  startup_ewarm.o [1]
_call_main              0x00002dfd         Code  Gb  cmain.o [6]
_exit                   0x00002e0d         Code  Gb  cexit.o [6]
_main                   0x00002e03         Code  Gb  cmain.o [6]
exit                    0x00002e07    0x4  Code  Gb  exit.o [3]
g_pucFont               0x000020b0  0x1dc  Data  Lc  display96x16x1.o [1]
g_pucOSRAMInit          0x0000228c   0x74  Data  Lc  display96x16x1.o [1]
g_pucOSRAMRow1          0x00002350    0x8  Data  Lc  display96x16x1.o [1]
g_pucOSRAMRow2          0x00002358    0x8  Data  Lc  display96x16x1.o [1]
g_pucRITInit            0x00002300   0x50  Data  Lc  display96x16x1.o [1]
g_pucRITRow1            0x00002360    0x8  Data  Lc  display96x16x1.o [1]
g_pucRITRow2            0x00002368    0x8  Data  Lc  display96x16x1.o [1]
g_ucColumnAdjust        0x20000555    0x1  Data  Lc  display96x16x1.o [1]
g_ucDisplayIsRIT        0x20000554    0x1  Data  Lc  display96x16x1.o [1]
g_ulDelay               0x20000558    0x4  Data  Lc  display96x16x1.o [1]
l_pulXtals              0x00001c70   0x5c  Data  Lc  system_lm3s.o [1]
main                    0x00002bcd   0x72  Code  Gb  main.o [1]
memset                  0x000016b7   0x14  Code  Gb  tunnel.o [1]
next_abi_dtor_rec       0x20000570    0x4  Data  Lc  cppinit.o [3]
pulStack                0x2000057c  0x258  Data  Lc  startup_ewarm.o [1]


[1] = D:\qp\qpcpp\examples\arm-cortex\qk\iar\game-qk-ev-lm3s811\rel
[2] = command line
[3] = dl7M_tln.a
[4] = dlpp7M_tl_ne.a
[5] = libqp_cortex-m3.a
[6] = rt7M_tl.a
[7] = shb_l.a

  11 312 bytes of readonly  code memory
     760 bytes of readonly  data memory
   2 445 bytes of readwrite data memory

Errors: none
Warnings: none
